
_READ_temp:

;wireless_temp_sensor.c,26 :: 		void READ_temp(void)
;wireless_temp_sensor.c,28 :: 		temp = ADC_Read(0);
	CLRF       FARG_ADC_Read_channel+0
	CALL       _ADC_Read+0
	MOVF       R0+0, 0
	MOVWF      _temp+0
	MOVF       R0+1, 0
	MOVWF      _temp+1
;wireless_temp_sensor.c,29 :: 		temp = temp * 0.4887;
	CALL       _int2double+0
	MOVLW      227
	MOVWF      R4+0
	MOVLW      54
	MOVWF      R4+1
	MOVLW      122
	MOVWF      R4+2
	MOVLW      125
	MOVWF      R4+3
	CALL       _Mul_32x32_FP+0
	CALL       _double2int+0
	MOVF       R0+0, 0
	MOVWF      _temp+0
	MOVF       R0+1, 0
	MOVWF      _temp+1
;wireless_temp_sensor.c,30 :: 		}
L_end_READ_temp:
	RETURN
; end of _READ_temp

_data_converstion:

;wireless_temp_sensor.c,31 :: 		void data_converstion(void)
;wireless_temp_sensor.c,33 :: 		inttostr(temp,txt);
	MOVF       _temp+0, 0
	MOVWF      FARG_IntToStr_input+0
	MOVF       _temp+1, 0
	MOVWF      FARG_IntToStr_input+1
	MOVLW      _txt+0
	MOVWF      FARG_IntToStr_output+0
	CALL       _IntToStr+0
;wireless_temp_sensor.c,34 :: 		}
L_end_data_converstion:
	RETURN
; end of _data_converstion

_display:

;wireless_temp_sensor.c,35 :: 		void display(void)
;wireless_temp_sensor.c,37 :: 		lcd_out(1,1,"TEMPERATURE=");
	MOVLW      1
	MOVWF      FARG_Lcd_Out_row+0
	MOVLW      1
	MOVWF      FARG_Lcd_Out_column+0
	MOVLW      ?lstr1_wireless_temp_sensor+0
	MOVWF      FARG_Lcd_Out_text+0
	CALL       _Lcd_Out+0
;wireless_temp_sensor.c,38 :: 		lcd_out(1,13, Ltrim(txt));
	MOVLW      _txt+0
	MOVWF      FARG_Ltrim_string+0
	CALL       _Ltrim+0
	MOVF       R0+0, 0
	MOVWF      FARG_Lcd_Out_text+0
	MOVLW      1
	MOVWF      FARG_Lcd_Out_row+0
	MOVLW      13
	MOVWF      FARG_Lcd_Out_column+0
	CALL       _Lcd_Out+0
;wireless_temp_sensor.c,39 :: 		Lcd_Chr_Cp(0xdf);
	MOVLW      223
	MOVWF      FARG_Lcd_Chr_CP_out_char+0
	CALL       _Lcd_Chr_CP+0
;wireless_temp_sensor.c,40 :: 		Lcd_Chr_Cp('C');
	MOVLW      67
	MOVWF      FARG_Lcd_Chr_CP_out_char+0
	CALL       _Lcd_Chr_CP+0
;wireless_temp_sensor.c,41 :: 		Lcd_Chr_Cp(' ');
	MOVLW      32
	MOVWF      FARG_Lcd_Chr_CP_out_char+0
	CALL       _Lcd_Chr_CP+0
;wireless_temp_sensor.c,42 :: 		}
L_end_display:
	RETURN
; end of _display

_send_to_modem:

;wireless_temp_sensor.c,44 :: 		void send_to_modem(char *s)
;wireless_temp_sensor.c,46 :: 		while(*s)
L_send_to_modem0:
	MOVF       FARG_send_to_modem_s+0, 0
	MOVWF      FSR
	MOVF       INDF+0, 0
	BTFSC      STATUS+0, 2
	GOTO       L_send_to_modem1
;wireless_temp_sensor.c,48 :: 		UART1_WRITE(*s++);
	MOVF       FARG_send_to_modem_s+0, 0
	MOVWF      FSR
	MOVF       INDF+0, 0
	MOVWF      FARG_UART1_Write_data_+0
	CALL       _UART1_Write+0
	INCF       FARG_send_to_modem_s+0, 1
;wireless_temp_sensor.c,49 :: 		}
	GOTO       L_send_to_modem0
L_send_to_modem1:
;wireless_temp_sensor.c,50 :: 		UART1_WRITE(0X0D);
	MOVLW      13
	MOVWF      FARG_UART1_Write_data_+0
	CALL       _UART1_Write+0
;wireless_temp_sensor.c,51 :: 		}
L_end_send_to_modem:
	RETURN
; end of _send_to_modem

_send_to_modem1:

;wireless_temp_sensor.c,52 :: 		void send_to_modem1(char *s)
;wireless_temp_sensor.c,54 :: 		while(*s)
L_send_to_modem12:
	MOVF       FARG_send_to_modem1_s+0, 0
	MOVWF      FSR
	MOVF       INDF+0, 0
	BTFSC      STATUS+0, 2
	GOTO       L_send_to_modem13
;wireless_temp_sensor.c,55 :: 		UART1_WRITE(*s++);
	MOVF       FARG_send_to_modem1_s+0, 0
	MOVWF      FSR
	MOVF       INDF+0, 0
	MOVWF      FARG_UART1_Write_data_+0
	CALL       _UART1_Write+0
	INCF       FARG_send_to_modem1_s+0, 1
	GOTO       L_send_to_modem12
L_send_to_modem13:
;wireless_temp_sensor.c,56 :: 		}
L_end_send_to_modem1:
	RETURN
; end of _send_to_modem1

_send_sms:

;wireless_temp_sensor.c,57 :: 		void send_sms()
;wireless_temp_sensor.c,59 :: 		send_to_modem1(text1);
	MOVLW      _text1+0
	MOVWF      FARG_send_to_modem1_s+0
	CALL       _send_to_modem1+0
;wireless_temp_sensor.c,60 :: 		delay_ms(1000);
	MOVLW      11
	MOVWF      R11+0
	MOVLW      38
	MOVWF      R12+0
	MOVLW      93
	MOVWF      R13+0
L_send_sms4:
	DECFSZ     R13+0, 1
	GOTO       L_send_sms4
	DECFSZ     R12+0, 1
	GOTO       L_send_sms4
	DECFSZ     R11+0, 1
	GOTO       L_send_sms4
	NOP
	NOP
;wireless_temp_sensor.c,61 :: 		send_to_modem1(txt);
	MOVLW      _txt+0
	MOVWF      FARG_send_to_modem1_s+0
	CALL       _send_to_modem1+0
;wireless_temp_sensor.c,62 :: 		delay_ms(1000);
	MOVLW      11
	MOVWF      R11+0
	MOVLW      38
	MOVWF      R12+0
	MOVLW      93
	MOVWF      R13+0
L_send_sms5:
	DECFSZ     R13+0, 1
	GOTO       L_send_sms5
	DECFSZ     R12+0, 1
	GOTO       L_send_sms5
	DECFSZ     R11+0, 1
	GOTO       L_send_sms5
	NOP
	NOP
;wireless_temp_sensor.c,63 :: 		uart1_write(terminator);
	MOVF       _terminator+0, 0
	MOVWF      FARG_UART1_Write_data_+0
	CALL       _UART1_Write+0
;wireless_temp_sensor.c,64 :: 		delay_ms(1000);
	MOVLW      11
	MOVWF      R11+0
	MOVLW      38
	MOVWF      R12+0
	MOVLW      93
	MOVWF      R13+0
L_send_sms6:
	DECFSZ     R13+0, 1
	GOTO       L_send_sms6
	DECFSZ     R12+0, 1
	GOTO       L_send_sms6
	DECFSZ     R11+0, 1
	GOTO       L_send_sms6
	NOP
	NOP
;wireless_temp_sensor.c,65 :: 		}
L_end_send_sms:
	RETURN
; end of _send_sms

_main:

;wireless_temp_sensor.c,66 :: 		void main()
;wireless_temp_sensor.c,68 :: 		lcd_init();
	CALL       _Lcd_Init+0
;wireless_temp_sensor.c,69 :: 		ADC_Init();
	CALL       _ADC_Init+0
;wireless_temp_sensor.c,70 :: 		Uart1_Init(9600);
	MOVLW      51
	MOVWF      SPBRG+0
	BSF        TXSTA+0, 2
	CALL       _UART1_Init+0
;wireless_temp_sensor.c,71 :: 		while(1)
L_main7:
;wireless_temp_sensor.c,72 :: 		{ READ_temp();
	CALL       _READ_temp+0
;wireless_temp_sensor.c,73 :: 		delay_ms(100);
	MOVLW      2
	MOVWF      R11+0
	MOVLW      4
	MOVWF      R12+0
	MOVLW      186
	MOVWF      R13+0
L_main9:
	DECFSZ     R13+0, 1
	GOTO       L_main9
	DECFSZ     R12+0, 1
	GOTO       L_main9
	DECFSZ     R11+0, 1
	GOTO       L_main9
	NOP
;wireless_temp_sensor.c,74 :: 		data_converstion();
	CALL       _data_converstion+0
;wireless_temp_sensor.c,75 :: 		delay_ms(100);
	MOVLW      2
	MOVWF      R11+0
	MOVLW      4
	MOVWF      R12+0
	MOVLW      186
	MOVWF      R13+0
L_main10:
	DECFSZ     R13+0, 1
	GOTO       L_main10
	DECFSZ     R12+0, 1
	GOTO       L_main10
	DECFSZ     R11+0, 1
	GOTO       L_main10
	NOP
;wireless_temp_sensor.c,76 :: 		display();
	CALL       _display+0
;wireless_temp_sensor.c,77 :: 		delay_ms(100);
	MOVLW      2
	MOVWF      R11+0
	MOVLW      4
	MOVWF      R12+0
	MOVLW      186
	MOVWF      R13+0
L_main11:
	DECFSZ     R13+0, 1
	GOTO       L_main11
	DECFSZ     R12+0, 1
	GOTO       L_main11
	DECFSZ     R11+0, 1
	GOTO       L_main11
	NOP
;wireless_temp_sensor.c,78 :: 		send_to_modem(AT);
	MOVLW      _AT+0
	MOVWF      FARG_send_to_modem_s+0
	CALL       _send_to_modem+0
;wireless_temp_sensor.c,79 :: 		delay_ms(1000);
	MOVLW      11
	MOVWF      R11+0
	MOVLW      38
	MOVWF      R12+0
	MOVLW      93
	MOVWF      R13+0
L_main12:
	DECFSZ     R13+0, 1
	GOTO       L_main12
	DECFSZ     R12+0, 1
	GOTO       L_main12
	DECFSZ     R11+0, 1
	GOTO       L_main12
	NOP
	NOP
;wireless_temp_sensor.c,80 :: 		send_to_modem(noecho);
	MOVLW      _noecho+0
	MOVWF      FARG_send_to_modem_s+0
	CALL       _send_to_modem+0
;wireless_temp_sensor.c,81 :: 		delay_ms(1000);
	MOVLW      11
	MOVWF      R11+0
	MOVLW      38
	MOVWF      R12+0
	MOVLW      93
	MOVWF      R13+0
L_main13:
	DECFSZ     R13+0, 1
	GOTO       L_main13
	DECFSZ     R12+0, 1
	GOTO       L_main13
	DECFSZ     R11+0, 1
	GOTO       L_main13
	NOP
	NOP
;wireless_temp_sensor.c,82 :: 		send_to_modem(mode_text);
	MOVLW      _mode_text+0
	MOVWF      FARG_send_to_modem_s+0
	CALL       _send_to_modem+0
;wireless_temp_sensor.c,83 :: 		delay_ms(1000);
	MOVLW      11
	MOVWF      R11+0
	MOVLW      38
	MOVWF      R12+0
	MOVLW      93
	MOVWF      R13+0
L_main14:
	DECFSZ     R13+0, 1
	GOTO       L_main14
	DECFSZ     R12+0, 1
	GOTO       L_main14
	DECFSZ     R11+0, 1
	GOTO       L_main14
	NOP
	NOP
;wireless_temp_sensor.c,84 :: 		send_to_modem(mobile_no);
	MOVLW      _mobile_no+0
	MOVWF      FARG_send_to_modem_s+0
	CALL       _send_to_modem+0
;wireless_temp_sensor.c,85 :: 		delay_ms(1000);
	MOVLW      11
	MOVWF      R11+0
	MOVLW      38
	MOVWF      R12+0
	MOVLW      93
	MOVWF      R13+0
L_main15:
	DECFSZ     R13+0, 1
	GOTO       L_main15
	DECFSZ     R12+0, 1
	GOTO       L_main15
	DECFSZ     R11+0, 1
	GOTO       L_main15
	NOP
	NOP
;wireless_temp_sensor.c,86 :: 		send_sms(); // funtion to send temperature value
	CALL       _send_sms+0
;wireless_temp_sensor.c,87 :: 		delay_ms(10000); // send sms afer every 10 seconds
	MOVLW      102
	MOVWF      R11+0
	MOVLW      118
	MOVWF      R12+0
	MOVLW      193
	MOVWF      R13+0
L_main16:
	DECFSZ     R13+0, 1
	GOTO       L_main16
	DECFSZ     R12+0, 1
	GOTO       L_main16
	DECFSZ     R11+0, 1
	GOTO       L_main16
;wireless_temp_sensor.c,88 :: 		}
	GOTO       L_main7
;wireless_temp_sensor.c,89 :: 		}
L_end_main:
	GOTO       $+0
; end of _main
